target datalayout = "e-m:e-p270:32:32-p271:32:32-p272:64:64-i64:64-i128:128-f80:128-n8:16:32:64-S128"
target triple = "x86_64-pc-linux-gnu"

%struct.FFDrawContext = type { ptr, i32, i32, [4 x i32], [4 x i8], [4 x i8], i8, i8, i32, i32, i32, [3 x [3 x double]] }

; Function Attrs: nounwind uwtable
define i32 @ff_draw_init(ptr noundef %0, i32 noundef %1, i32 noundef %2) #0 {
  %4 = alloca ptr, align 8
  %5 = alloca i32, align 4
  %6 = alloca i32, align 4
  store ptr %0, ptr %4, align 8, !tbaa !24
  store i32 %1, ptr %5, align 4, !tbaa !9
  store i32 %2, ptr %6, align 4, !tbaa !9
  %7 = load ptr, ptr %4, align 8, !tbaa !24
  %8 = load i32, ptr %5, align 4, !tbaa !9
  %9 = load i32, ptr %6, align 4, !tbaa !9
  %10 = call i32 @ff_draw_init2(ptr noundef %7, i32 noundef %8, i32 noundef 2, i32 noundef 0, i32 noundef %9)
  ret i32 %10
}

; Function Attrs: nounwind uwtable
define ptr @ff_draw_supported_pixel_formats(i32 noundef %0) #0 {
  %2 = alloca ptr, align 8
  %3 = alloca i32, align 4
  %4 = alloca %struct.FFDrawContext, align 8
  %5 = alloca ptr, align 8
  %6 = alloca i32, align 4
  %7 = alloca i32, align 4
  %8 = alloca i32, align 4
  store i32 %0, ptr %3, align 4, !tbaa !9
  call void @llvm.lifetime.start.p0(i64 128, ptr %4) #8
  call void @llvm.lifetime.start.p0(i64 8, ptr %5) #8
  store ptr null, ptr %5, align 8, !tbaa !77
  call void @llvm.lifetime.start.p0(i64 4, ptr %6) #8
  call void @llvm.lifetime.start.p0(i64 4, ptr %7) #8
  store i32 0, ptr %7, align 4, !tbaa !9
  br label %9

9:                                                ; preds = %26, %1
  %10 = load i32, ptr %7, align 4, !tbaa !9
  %11 = call ptr @av_pix_fmt_desc_get(i32 noundef %10)
  %12 = icmp ne ptr %11, null
  br i1 %12, label %14, label %13

13:                                               ; preds = %9
  store i32 2, ptr %8, align 4
  br label %29

14:                                               ; preds = %9
  %15 = load i32, ptr %7, align 4, !tbaa !9
  %16 = load i32, ptr %3, align 4, !tbaa !9
  %17 = call i32 @ff_draw_init(ptr noundef %4, i32 noundef %15, i32 noundef %16)
  %18 = icmp sge i32 %17, 0
  br i1 %18, label %19, label %25

19:                                               ; preds = %14
  %20 = load i32, ptr %7, align 4, !tbaa !9
  %21 = sext i32 %20 to i64
  %22 = call i32 @ff_add_format(ptr noundef %5, i64 noundef %21)
  store i32 %22, ptr %6, align 4, !tbaa !9
  %23 = icmp slt i32 %22, 0
  br i1 %23, label %24, label %25

24:                                               ; preds = %19
  store ptr null, ptr %2, align 8
  store i32 1, ptr %8, align 4
  br label %29

25:                                               ; preds = %19, %14
  br label %26

26:                                               ; preds = %25
  %27 = load i32, ptr %7, align 4, !tbaa !9
  %28 = add nsw i32 %27, 1
  store i32 %28, ptr %7, align 4, !tbaa !9
  br label %9, !llvm.loop !79

29:                                               ; preds = %24, %13
  call void @llvm.lifetime.end.p0(i64 4, ptr %7) #8
  %30 = load i32, ptr %8, align 4
  switch i32 %30, label %33 [
    i32 2, label %31
  ]

31:                                               ; preds = %29
  %32 = load ptr, ptr %5, align 8, !tbaa !77
  store ptr %32, ptr %2, align 8
  store i32 1, ptr %8, align 4
  br label %33

33:                                               ; preds = %31, %29
  call void @llvm.lifetime.end.p0(i64 4, ptr %6) #8
  call void @llvm.lifetime.end.p0(i64 8, ptr %5) #8
  call void @llvm.lifetime.end.p0(i64 128, ptr %4) #8
  %34 = load ptr, ptr %2, align 8
  ret ptr %34
}