; Function Attrs: nounwind uwtable
define ptr @ff_draw_supported_pixel_formats(i32 noundef %0) local_unnamed_addr #0 {
  %2 = alloca %struct.FFDrawContext, align 8
  %3 = alloca ptr, align 8
  call void @llvm.lifetime.start.p0(i64 128, ptr nonnull %2) #11
  call void @llvm.lifetime.start.p0(i64 8, ptr nonnull %3) #11
  store ptr null, ptr %3, align 8, !tbaa !65
  %4 = tail call ptr @av_pix_fmt_desc_get(i32 noundef 0) #11
  %.not8 = icmp eq ptr %4, null
  br i1 %.not8, label %._crit_edge, label %.lr.ph

.lr.ph:                                           ; preds = %1, %11
  %indvars.iv = phi i64 [ %indvars.iv.next, %11 ], [ 0, %1 ]
  %5 = trunc nuw nsw i64 %indvars.iv to i32
  %6 = call range(i32 -38, 1) i32 @ff_draw_init2(ptr noundef nonnull %2, i32 noundef %5, i32 noundef 2, i32 noundef 0, i32 noundef %0)
  %7 = icmp sgt i32 %6, -1
  br i1 %7, label %8, label %11

8:                                                ; preds = %.lr.ph
  %9 = call i32 @ff_add_format(ptr noundef nonnull %3, i64 noundef %indvars.iv) #11
  %10 = icmp slt i32 %9, 0
  br i1 %10, label %._crit_edge, label %11

11:                                               ; preds = %.lr.ph, %8
  %indvars.iv.next = add nuw nsw i64 %indvars.iv, 1
  %12 = trunc nuw i64 %indvars.iv.next to i32
  %13 = call ptr @av_pix_fmt_desc_get(i32 noundef %12) #11
  %.not = icmp eq ptr %13, null
  br i1 %.not, label %14, label %.lr.ph, !llvm.loop !67

14:                                               ; preds = %11
  %.pre15 = load ptr, ptr %3, align 8
  br label %._crit_edge

._crit_edge:                                      ; preds = %8, %14, %1
  %.not.lcssa = phi ptr [ null, %1 ], [ %.pre15, %14 ], [ null, %8 ]
  call void @llvm.lifetime.end.p0(i64 8, ptr nonnull %3) #11
  call void @llvm.lifetime.end.p0(i64 128, ptr nonnull %2) #11
  ret ptr %.not.lcssa
}